target datalayout = "e-m:e-p270:32:32-p271:32:32-p272:64:64-i64:64-i128:128-f80:128-n8:16:32:64-S128"
target triple = "x86_64-pc-linux-gnu"

%struct._SPI_connection = type { i64, ptr, i32, %struct.slist_head, ptr, ptr, ptr, i32, ptr, i8, i8, i64, ptr, i32 }
%struct.slist_head = type { %struct.slist_node }
%struct.slist_node = type { ptr }
%struct.SPITupleTable = type { ptr, ptr, i64, i64, ptr, %struct.slist_node, i32 }
%struct.ItemPointerData = type { %struct.BlockIdData, i16 }
%struct.BlockIdData = type { i16, i16 }
%struct.TupleTableSlot = type { i32, i16, i16, ptr, ptr, ptr, ptr, ptr, %struct.ItemPointerData, i32 }
%struct.TupleTableSlotOps = type { i64, ptr, ptr, ptr, ptr, ptr, ptr, ptr, ptr, ptr, ptr, ptr, ptr }

@.str.1 = private unnamed_addr constant [6 x i8] c"spi.c\00", align 1
@_SPI_current = internal global ptr null, align 8
@CurrentMemoryContext = external global ptr, align 8
@.str.51 = private unnamed_addr constant [47 x i8] c"spi_printtup called while not connected to SPI\00", align 1
@__func__.spi_printtup = private unnamed_addr constant [13 x i8] c"spi_printtup\00", align 1
@.str.52 = private unnamed_addr constant [30 x i8] c"improper call to spi_printtup\00", align 1

; Function Attrs: inlinehint nounwind uwtable
define internal ptr @ExecCopySlotHeapTuple(ptr noundef %0) #4 {
  %2 = alloca ptr, align 8
  store ptr %0, ptr %2, align 8
  %3 = load ptr, ptr %2, align 8
  %4 = getelementptr inbounds nuw %struct.TupleTableSlot, ptr %3, i32 0, i32 3
  %5 = load ptr, ptr %4, align 8
  %6 = getelementptr inbounds nuw %struct.TupleTableSlotOps, ptr %5, i32 0, i32 11
  %7 = load ptr, ptr %6, align 8
  %8 = load ptr, ptr %2, align 8
  %9 = call ptr %7(ptr noundef %8)
  ret ptr %9
}

; Function Attrs: inlinehint nounwind uwtable
define internal ptr @MemoryContextSwitchTo(ptr noundef %0) #4 {
  %2 = alloca ptr, align 8
  %3 = alloca ptr, align 8
  store ptr %0, ptr %2, align 8
  call void @llvm.lifetime.start.p0(i64 8, ptr %3) #9
  %4 = load ptr, ptr @CurrentMemoryContext, align 8
  store ptr %4, ptr %3, align 8
  %5 = load ptr, ptr %2, align 8
  store ptr %5, ptr @CurrentMemoryContext, align 8
  %6 = load ptr, ptr %3, align 8
  call void @llvm.lifetime.end.p0(i64 8, ptr %3) #9
  ret ptr %6
}

; Function Attrs: nounwind uwtable
define dso_local zeroext i1 @spi_printtup(ptr noundef %0, ptr noundef %1) #0 {
  %3 = alloca ptr, align 8
  %4 = alloca ptr, align 8
  %5 = alloca ptr, align 8
  %6 = alloca ptr, align 8
  %7 = alloca i64, align 8
  store ptr %0, ptr %3, align 8
  store ptr %1, ptr %4, align 8
  call void @llvm.lifetime.start.p0(i64 8, ptr %5) #9
  call void @llvm.lifetime.start.p0(i64 8, ptr %6) #9
  %8 = load ptr, ptr @_SPI_current, align 8
  %9 = icmp eq ptr %8, null
  br i1 %9, label %10, label %21

10:                                               ; preds = %2
  br label %11

11:                                               ; preds = %10
  br i1 true, label %12, label %14

12:                                               ; preds = %11
  %13 = call zeroext i1 @errstart_cold(i32 noundef 21, ptr noundef null) #10
  br i1 %13, label %16, label %18

14:                                               ; preds = %11
  %15 = call zeroext i1 @errstart(i32 noundef 21, ptr noundef null)
  br i1 %15, label %16, label %18

16:                                               ; preds = %14, %12
  %17 = call i32 (ptr, ...) @errmsg_internal(ptr noundef @.str.51)
  call void @errfinish(ptr noundef @.str.1, i32 noundef 2177, ptr noundef @__func__.spi_printtup)
  br label %18

18:                                               ; preds = %16, %14, %12
  unreachable

19:                                               ; No predecessors!
  br label %20

20:                                               ; preds = %19
  br label %21

21:                                               ; preds = %20, %2
  %22 = load ptr, ptr @_SPI_current, align 8
  %23 = getelementptr inbounds nuw %struct._SPI_connection, ptr %22, i32 0, i32 1
  %24 = load ptr, ptr %23, align 8
  store ptr %24, ptr %5, align 8
  %25 = load ptr, ptr %5, align 8
  %26 = icmp eq ptr %25, null
  br i1 %26, label %27, label %38

27:                                               ; preds = %21
  br label %28

28:                                               ; preds = %27
  br i1 true, label %29, label %31

29:                                               ; preds = %28
  %30 = call zeroext i1 @errstart_cold(i32 noundef 21, ptr noundef null) #10
  br i1 %30, label %33, label %35

31:                                               ; preds = %28
  %32 = call zeroext i1 @errstart(i32 noundef 21, ptr noundef null)
  br i1 %32, label %33, label %35

33:                                               ; preds = %31, %29
  %34 = call i32 (ptr, ...) @errmsg_internal(ptr noundef @.str.52)
  call void @errfinish(ptr noundef @.str.1, i32 noundef 2181, ptr noundef @__func__.spi_printtup)
  br label %35

35:                                               ; preds = %33, %31, %29
  unreachable

36:                                               ; No predecessors!
  br label %37

37:                                               ; preds = %36
  br label %38

38:                                               ; preds = %37, %21
  %39 = load ptr, ptr %5, align 8
  %40 = getelementptr inbounds nuw %struct.SPITupleTable, ptr %39, i32 0, i32 4
  %41 = load ptr, ptr %40, align 8
  %42 = call ptr @MemoryContextSwitchTo(ptr noundef %41)
  store ptr %42, ptr %6, align 8
  %43 = load ptr, ptr %5, align 8
  %44 = getelementptr inbounds nuw %struct.SPITupleTable, ptr %43, i32 0, i32 2
  %45 = load i64, ptr %44, align 8
  %46 = load ptr, ptr %5, align 8
  %47 = getelementptr inbounds nuw %struct.SPITupleTable, ptr %46, i32 0, i32 3
  %48 = load i64, ptr %47, align 8
  %49 = icmp uge i64 %45, %48
  br i1 %49, label %50, label %66

50:                                               ; preds = %38
  call void @llvm.lifetime.start.p0(i64 8, ptr %7) #9
  %51 = load ptr, ptr %5, align 8
  %52 = getelementptr inbounds nuw %struct.SPITupleTable, ptr %51, i32 0, i32 3
  %53 = load i64, ptr %52, align 8
  %54 = mul i64 %53, 2
  store i64 %54, ptr %7, align 8
  %55 = load ptr, ptr %5, align 8
  %56 = getelementptr inbounds nuw %struct.SPITupleTable, ptr %55, i32 0, i32 1
  %57 = load ptr, ptr %56, align 8
  %58 = load i64, ptr %7, align 8
  %59 = mul i64 %58, 8
  %60 = call ptr @repalloc_huge(ptr noundef %57, i64 noundef %59)
  %61 = load ptr, ptr %5, align 8
  %62 = getelementptr inbounds nuw %struct.SPITupleTable, ptr %61, i32 0, i32 1
  store ptr %60, ptr %62, align 8
  %63 = load i64, ptr %7, align 8
  %64 = load ptr, ptr %5, align 8
  %65 = getelementptr inbounds nuw %struct.SPITupleTable, ptr %64, i32 0, i32 3
  store i64 %63, ptr %65, align 8
  call void @llvm.lifetime.end.p0(i64 8, ptr %7) #9
  br label %66

66:                                               ; preds = %50, %38
  %67 = load ptr, ptr %3, align 8
  %68 = call ptr @ExecCopySlotHeapTuple(ptr noundef %67)
  %69 = load ptr, ptr %5, align 8
  %70 = getelementptr inbounds nuw %struct.SPITupleTable, ptr %69, i32 0, i32 1
  %71 = load ptr, ptr %70, align 8
  %72 = load ptr, ptr %5, align 8
  %73 = getelementptr inbounds nuw %struct.SPITupleTable, ptr %72, i32 0, i32 2
  %74 = load i64, ptr %73, align 8
  %75 = getelementptr inbounds nuw ptr, ptr %71, i64 %74
  store ptr %68, ptr %75, align 8
  %76 = load ptr, ptr %5, align 8
  %77 = getelementptr inbounds nuw %struct.SPITupleTable, ptr %76, i32 0, i32 2
  %78 = load i64, ptr %77, align 8
  %79 = add i64 %78, 1
  store i64 %79, ptr %77, align 8
  %80 = load ptr, ptr %6, align 8
  %81 = call ptr @MemoryContextSwitchTo(ptr noundef %80)
  call void @llvm.lifetime.end.p0(i64 8, ptr %6) #9
  call void @llvm.lifetime.end.p0(i64 8, ptr %5) #9
  ret i1 true
}