; Function Attrs: nounwind uwtable
define dso_local noundef zeroext i1 @spi_printtup(ptr noundef %0, ptr noundef readnone captures(none) %1) local_unnamed_addr #0 {
  %3 = load ptr, ptr @_SPI_current, align 8
  %4 = icmp eq ptr %3, null
  br i1 %4, label %5, label %8

5:                                                ; preds = %2
  %6 = tail call zeroext i1 @errstart_cold(i32 noundef 21, ptr noundef null) #14
  tail call void @llvm.assume(i1 %6)
  %7 = tail call i32 (ptr, ...) @errmsg_internal(ptr noundef nonnull @.str.51) #15
  tail call void @errfinish(ptr noundef nonnull @.str.1, i32 noundef 2177, ptr noundef nonnull @__func__.spi_printtup) #15
  unreachable

8:                                                ; preds = %2
  %9 = getelementptr inbounds nuw i8, ptr %3, i64 8
  %10 = load ptr, ptr %9, align 8
  %11 = icmp eq ptr %10, null
  br i1 %11, label %12, label %15

12:                                               ; preds = %8
  %13 = tail call zeroext i1 @errstart_cold(i32 noundef 21, ptr noundef null) #14
  tail call void @llvm.assume(i1 %13)
  %14 = tail call i32 (ptr, ...) @errmsg_internal(ptr noundef nonnull @.str.52) #15
  tail call void @errfinish(ptr noundef nonnull @.str.1, i32 noundef 2181, ptr noundef nonnull @__func__.spi_printtup) #15
  unreachable

15:                                               ; preds = %8
  %16 = getelementptr inbounds nuw i8, ptr %10, i64 32
  %17 = load ptr, ptr %16, align 8
  %18 = load ptr, ptr @CurrentMemoryContext, align 8
  store ptr %17, ptr @CurrentMemoryContext, align 8
  %19 = getelementptr inbounds nuw i8, ptr %10, i64 16
  %20 = load i64, ptr %19, align 8
  %21 = getelementptr inbounds nuw i8, ptr %10, i64 24
  %22 = load i64, ptr %21, align 8
  %.not = icmp ult i64 %20, %22
  br i1 %.not, label %29, label %23

23:                                               ; preds = %15
  %24 = shl i64 %22, 1
  %25 = getelementptr inbounds nuw i8, ptr %10, i64 8
  %26 = load ptr, ptr %25, align 8
  %27 = shl i64 %22, 4
  %28 = tail call ptr @repalloc_huge(ptr noundef %26, i64 noundef %27) #15
  store ptr %28, ptr %25, align 8
  store i64 %24, ptr %21, align 8
  br label %29

29:                                               ; preds = %23, %15
  %30 = getelementptr inbounds nuw i8, ptr %0, i64 8
  %31 = load ptr, ptr %30, align 8
  %32 = getelementptr inbounds nuw i8, ptr %31, i64 88
  %33 = load ptr, ptr %32, align 8
  %34 = tail call ptr %33(ptr noundef %0) #15
  %35 = getelementptr inbounds nuw i8, ptr %10, i64 8
  %36 = load ptr, ptr %35, align 8
  %37 = load i64, ptr %19, align 8
  %38 = getelementptr inbounds nuw ptr, ptr %36, i64 %37
  store ptr %34, ptr %38, align 8
  %39 = load i64, ptr %19, align 8
  %40 = add i64 %39, 1
  store i64 %40, ptr %19, align 8
  store ptr %18, ptr @CurrentMemoryContext, align 8
  ret i1 true
}